target datalayout = "e-m:e-p270:32:32-p271:32:32-p272:64:64-i64:64-i128:128-f80:128-n8:16:32:64-S128"
target triple = "x86_64-unknown-linux-gnu"

%"class.llvh::StringRef" = type { ptr, i64 }
%"class.llvh::cl::opt.107" = type { %"class.llvh::cl::Option.base", %"class.llvh::cl::opt_storage.108", %"class.llvh::cl::parser.41" }
%"class.llvh::cl::Option.base" = type <{ ptr, i32, i16, [2 x i8], i32, i32, %"class.llvh::StringRef", %"class.llvh::StringRef", %"class.llvh::StringRef", ptr, %"class.llvh::SmallPtrSet", i8 }>
%"class.llvh::SmallPtrSet" = type { %"class.llvh::SmallPtrSetImpl.base", [4 x ptr] }
%"class.llvh::SmallPtrSetImpl.base" = type { %"class.llvh::SmallPtrSetImplBase.base" }
%"class.llvh::SmallPtrSetImplBase.base" = type <{ ptr, ptr, i32, i32, i32 }>
%"class.llvh::cl::opt_storage.108" = type { ptr, %"struct.llvh::cl::OptionValue.109" }
%"struct.llvh::cl::OptionValue.109" = type { %"struct.llvh::cl::OptionValueBase.110" }
%"struct.llvh::cl::OptionValueBase.110" = type { %"struct.llvh::cl::GenericOptionValue" }
%"struct.llvh::cl::GenericOptionValue" = type { ptr }
%"class.llvh::cl::parser.41" = type { %"class.llvh::cl::basic_parser" }
%"class.llvh::cl::basic_parser" = type { %"class.llvh::cl::basic_parser_impl" }
%"class.llvh::cl::basic_parser_impl" = type { ptr }
%"class.llvh::cl::Option" = type <{ ptr, i32, i16, [2 x i8], i32, i32, %"class.llvh::StringRef", %"class.llvh::StringRef", %"class.llvh::StringRef", ptr, %"class.llvh::SmallPtrSet", i8, [7 x i8] }>

; Function Attrs: mustprogress nounwind uwtable
define internal { ptr, i64 } @_ZL11getValueStrRKN4llvh2cl6OptionENS_9StringRefE(ptr noundef nonnull align 8 dereferenceable(145) %O, ptr %DefaultMsg.coerce0, i64 %DefaultMsg.coerce1) #0 {
entry:
  %this.addr.i = alloca ptr, align 8
  %retval = alloca %"class.llvh::StringRef", align 8
  %DefaultMsg = alloca %"class.llvh::StringRef", align 8
  %O.addr = alloca ptr, align 8
  %0 = getelementptr inbounds { ptr, i64 }, ptr %DefaultMsg, i32 0, i32 0
  store ptr %DefaultMsg.coerce0, ptr %0, align 8
  %1 = getelementptr inbounds { ptr, i64 }, ptr %DefaultMsg, i32 0, i32 1
  store i64 %DefaultMsg.coerce1, ptr %1, align 8
  store ptr %O, ptr %O.addr, align 8
  %2 = load ptr, ptr %O.addr, align 8
  %ValueStr = getelementptr inbounds %"class.llvh::cl::Option", ptr %2, i32 0, i32 8
  store ptr %ValueStr, ptr %this.addr.i, align 8
  %this1.i = load ptr, ptr %this.addr.i, align 8
  %Length.i = getelementptr inbounds %"class.llvh::StringRef", ptr %this1.i, i32 0, i32 1
  %3 = load i64, ptr %Length.i, align 8
  %cmp.i = icmp eq i64 %3, 0
  br i1 %cmp.i, label %if.then, label %if.end

if.then:                                          ; preds = %entry
  call void @llvm.memcpy.p0.p0.i64(ptr align 8 %retval, ptr align 8 %DefaultMsg, i64 16, i1 false)
  br label %return

if.end:                                           ; preds = %entry
  %4 = load ptr, ptr %O.addr, align 8
  %ValueStr1 = getelementptr inbounds %"class.llvh::cl::Option", ptr %4, i32 0, i32 8
  call void @llvm.memcpy.p0.p0.i64(ptr align 8 %retval, ptr align 8 %ValueStr1, i64 16, i1 false)
  br label %return

return:                                           ; preds = %if.end, %if.then
  %5 = load { ptr, i64 }, ptr %retval, align 8
  ret { ptr, i64 } %5
}

; Function Attrs: mustprogress nounwind uwtable
define linkonce_odr hidden noundef i32 @_ZNK4llvh2cl6Option12getMiscFlagsEv(ptr noundef nonnull align 8 dereferenceable(145) %this) #0 comdat align 2 {
entry:
  %this.addr = alloca ptr, align 8
  store ptr %this, ptr %this.addr, align 8
  %this1 = load ptr, ptr %this.addr, align 8
  %Misc = getelementptr inbounds %"class.llvh::cl::Option", ptr %this1, i32 0, i32 2
  %bf.load = load i16, ptr %Misc, align 4
  %bf.lshr = lshr i16 %bf.load, 9
  %bf.clear = and i16 %bf.lshr, 7
  %bf.cast = zext i16 %bf.clear to i32
  ret i32 %bf.cast
}

; Function Attrs: mustprogress nounwind uwtable
define hidden noundef i64 @_ZNK4llvh2cl17basic_parser_impl14getOptionWidthERKNS0_6OptionE(ptr noundef nonnull align 8 dereferenceable(8) %this, ptr noundef nonnull align 8 dereferenceable(145) %O) #0 align 2 {
entry:
  %this.addr.i14 = alloca ptr, align 8
  %this.addr.i11 = alloca ptr, align 8
  %this.addr.i = alloca ptr, align 8
  %this.addr = alloca ptr, align 8
  %O.addr = alloca ptr, align 8
  %Len = alloca i64, align 8
  %ValName = alloca %"class.llvh::StringRef", align 8
  %FormattingLen = alloca i64, align 8
  %ref.tmp = alloca %"class.llvh::StringRef", align 8
  %agg.tmp = alloca %"class.llvh::StringRef", align 8
  store ptr %this, ptr %this.addr, align 8
  store ptr %O, ptr %O.addr, align 8
  %this1 = load ptr, ptr %this.addr, align 8
  %0 = load ptr, ptr %O.addr, align 8
  %ArgStr = getelementptr inbounds %"class.llvh::cl::Option", ptr %0, i32 0, i32 6
  store ptr %ArgStr, ptr %this.addr.i11, align 8
  %this1.i12 = load ptr, ptr %this.addr.i11, align 8
  %Length.i13 = getelementptr inbounds %"class.llvh::StringRef", ptr %this1.i12, i32 0, i32 1
  %1 = load i64, ptr %Length.i13, align 8
  store i64 %1, ptr %Len, align 8
  %vtable = load ptr, ptr %this1, align 8
  %vfn = getelementptr inbounds ptr, ptr %vtable, i64 0
  %2 = load ptr, ptr %vfn, align 8
  %call2 = call { ptr, i64 } %2(ptr noundef nonnull align 8 dereferenceable(8) %this1)
  %3 = getelementptr inbounds { ptr, i64 }, ptr %ValName, i32 0, i32 0
  %4 = extractvalue { ptr, i64 } %call2, 0
  store ptr %4, ptr %3, align 8
  %5 = getelementptr inbounds { ptr, i64 }, ptr %ValName, i32 0, i32 1
  %6 = extractvalue { ptr, i64 } %call2, 1
  store i64 %6, ptr %5, align 8
  store ptr %ValName, ptr %this.addr.i14, align 8
  %this1.i15 = load ptr, ptr %this.addr.i14, align 8
  %Length.i16 = getelementptr inbounds %"class.llvh::StringRef", ptr %this1.i15, i32 0, i32 1
  %7 = load i64, ptr %Length.i16, align 8
  %cmp.i = icmp eq i64 %7, 0
  br i1 %cmp.i, label %if.end9, label %if.then

if.then:                                          ; preds = %entry
  store i64 3, ptr %FormattingLen, align 8
  %8 = load ptr, ptr %O.addr, align 8
  %call4 = call noundef i32 @_ZNK4llvh2cl6Option12getMiscFlagsEv(ptr noundef nonnull align 8 dereferenceable(145) %8)
  %and = and i32 %call4, 2
  %tobool = icmp ne i32 %and, 0
  br i1 %tobool, label %if.then5, label %if.end

if.then5:                                         ; preds = %if.then
  store i64 6, ptr %FormattingLen, align 8
  br label %if.end

if.end:                                           ; preds = %if.then5, %if.then
  %9 = load ptr, ptr %O.addr, align 8
  call void @llvm.memcpy.p0.p0.i64(ptr align 8 %agg.tmp, ptr align 8 %ValName, i64 16, i1 false)
  %10 = getelementptr inbounds { ptr, i64 }, ptr %agg.tmp, i32 0, i32 0
  %11 = load ptr, ptr %10, align 8
  %12 = getelementptr inbounds { ptr, i64 }, ptr %agg.tmp, i32 0, i32 1
  %13 = load i64, ptr %12, align 8
  %call6 = call { ptr, i64 } @_ZL11getValueStrRKN4llvh2cl6OptionENS_9StringRefE(ptr noundef nonnull align 8 dereferenceable(145) %9, ptr %11, i64 %13)
  %14 = getelementptr inbounds { ptr, i64 }, ptr %ref.tmp, i32 0, i32 0
  %15 = extractvalue { ptr, i64 } %call6, 0
  store ptr %15, ptr %14, align 8
  %16 = getelementptr inbounds { ptr, i64 }, ptr %ref.tmp, i32 0, i32 1
  %17 = extractvalue { ptr, i64 } %call6, 1
  store i64 %17, ptr %16, align 8
  store ptr %ref.tmp, ptr %this.addr.i, align 8
  %this1.i = load ptr, ptr %this.addr.i, align 8
  %Length.i = getelementptr inbounds %"class.llvh::StringRef", ptr %this1.i, i32 0, i32 1
  %18 = load i64, ptr %Length.i, align 8
  %19 = load i64, ptr %FormattingLen, align 8
  %add = add i64 %18, %19
  %20 = load i64, ptr %Len, align 8
  %add8 = add i64 %20, %add
  store i64 %add8, ptr %Len, align 8
  br label %if.end9

if.end9:                                          ; preds = %if.end, %entry
  %21 = load i64, ptr %Len, align 8
  %add10 = add i64 %21, 6
  ret i64 %add10
}

; Function Attrs: mustprogress nounwind uwtable
define internal noundef i64 @_ZNK4llvh2cl3optIN12_GLOBAL__N_111HelpPrinterELb1ENS0_6parserIbEEE14getOptionWidthEv(ptr noundef nonnull align 8 dereferenceable(176) %this) unnamed_addr #0 align 2 {
entry:
  %this.addr = alloca ptr, align 8
  store ptr %this, ptr %this.addr, align 8
  %this1 = load ptr, ptr %this.addr, align 8
  %Parser = getelementptr inbounds %"class.llvh::cl::opt.107", ptr %this1, i32 0, i32 2
  %call = call noundef i64 @_ZNK4llvh2cl17basic_parser_impl14getOptionWidthERKNS0_6OptionE(ptr noundef nonnull align 8 dereferenceable(8) %Parser, ptr noundef nonnull align 8 dereferenceable(145) %this1)
  ret i64 %call
}