; Function Attrs: mustprogress nounwind uwtable
define internal noundef i64 @_ZNK4llvh2cl3optIN12_GLOBAL__N_111HelpPrinterELb1ENS0_6parserIbEEE14getOptionWidthEv(ptr noundef nonnull align 8 dereferenceable(176) %this) unnamed_addr #0 align 2 {
entry:
  %Parser = getelementptr inbounds i8, ptr %this, i64 168
  %Length.i13.i = getelementptr inbounds i8, ptr %this, i64 32
  %0 = load i64, ptr %Length.i13.i, align 8
  %vtable.i = load ptr, ptr %Parser, align 8
  %1 = load ptr, ptr %vtable.i, align 8
  %call2.i = tail call { ptr, i64 } %1(ptr noundef nonnull align 8 dereferenceable(8) %Parser) #27
  %2 = extractvalue { ptr, i64 } %call2.i, 1
  %cmp.i.i = icmp eq i64 %2, 0
  br i1 %cmp.i.i, label %_ZNK4llvh2cl17basic_parser_impl14getOptionWidthERKNS0_6OptionE.exit, label %if.then.i

if.then.i:                                        ; preds = %entry
  %Misc.i.i = getelementptr inbounds i8, ptr %this, i64 12
  %bf.load.i.i = load i16, ptr %Misc.i.i, align 4
  %3 = and i16 %bf.load.i.i, 1024
  %tobool.not.i = icmp eq i16 %3, 0
  %spec.select.i = select i1 %tobool.not.i, i64 3, i64 6
  %4 = getelementptr inbounds i8, ptr %this, i64 64
  %O.val5.i = load i64, ptr %4, align 8
  %cmp.i.i.i = icmp eq i64 %O.val5.i, 0
  %retval.sroa.3.0.i.i = select i1 %cmp.i.i.i, i64 %2, i64 %O.val5.i
  %add.i = add i64 %spec.select.i, %0
  %add8.i = add i64 %add.i, %retval.sroa.3.0.i.i
  br label %_ZNK4llvh2cl17basic_parser_impl14getOptionWidthERKNS0_6OptionE.exit

_ZNK4llvh2cl17basic_parser_impl14getOptionWidthERKNS0_6OptionE.exit: ; preds = %entry, %if.then.i
  %Len.0.i = phi i64 [ %0, %entry ], [ %add8.i, %if.then.i ]
  %add10.i = add i64 %Len.0.i, 6
  ret i64 %add10.i
}